target datalayout = "e-m:e-p270:32:32-p271:32:32-p272:64:64-i64:64-i128:128-f80:128-n8:16:32:64-S128"
target triple = "x86_64-unknown-linux-gnu"

%"class.std::__cxx11::basic_string" = type { %"struct.std::__cxx11::basic_string<char>::_Alloc_hider", i64, %union.anon }
%"struct.std::__cxx11::basic_string<char>::_Alloc_hider" = type { ptr }
%union.anon = type { i64, [8 x i8] }
%"class.flatbuffers::BaseGenerator" = type { ptr, ptr, ptr, ptr, %"class.std::__cxx11::basic_string", %"class.std::__cxx11::basic_string", %"class.std::__cxx11::basic_string" }

; Function Attrs: mustprogress uwtable
define dso_local void @_ZNK11flatbuffers13BaseGenerator12NamespaceDirB5cxx11ERKNS_9NamespaceEb(ptr noalias sret(%"class.std::__cxx11::basic_string") align 8 %agg.result, ptr noundef nonnull align 8 dereferenceable(128) %this, ptr noundef nonnull align 8 dereferenceable(32) %ns, i1 noundef zeroext %dasherize) #0 align 2 {
entry:
  %result.ptr = alloca ptr, align 8
  %this.addr = alloca ptr, align 8
  %ns.addr = alloca ptr, align 8
  %dasherize.addr = alloca i8, align 1
  store ptr %agg.result, ptr %result.ptr, align 8
  store ptr %this, ptr %this.addr, align 8
  store ptr %ns, ptr %ns.addr, align 8
  %frombool = zext i1 %dasherize to i8
  store i8 %frombool, ptr %dasherize.addr, align 1
  %this1 = load ptr, ptr %this.addr, align 8
  %parser_ = getelementptr inbounds %"class.flatbuffers::BaseGenerator", ptr %this1, i32 0, i32 1
  %0 = load ptr, ptr %parser_, align 8
  %path_ = getelementptr inbounds %"class.flatbuffers::BaseGenerator", ptr %this1, i32 0, i32 2
  %1 = load ptr, ptr %path_, align 8
  %2 = load ptr, ptr %ns.addr, align 8
  %3 = load i8, ptr %dasherize.addr, align 1
  %tobool = trunc i8 %3 to i1
  call void @_ZN11flatbuffers13BaseGenerator12NamespaceDirERKNS_6ParserERKNSt7__cxx1112basic_stringIcSt11char_traitsIcESaIcEEERKNS_9NamespaceEb(ptr sret(%"class.std::__cxx11::basic_string") align 8 %agg.result, ptr noundef nonnull align 8 dereferenceable(1784) %0, ptr noundef nonnull align 8 dereferenceable(32) %1, ptr noundef nonnull align 8 dereferenceable(32) %2, i1 noundef zeroext %tobool)
  ret void
}