; Function Attrs: mustprogress uwtable
define dso_local void @_ZNK11flatbuffers13BaseGenerator12NamespaceDirB5cxx11ERKNS_9NamespaceEb(ptr noalias sret(%"class.std::__cxx11::basic_string") align 8 %agg.result, ptr nocapture noundef nonnull readonly align 8 dereferenceable(128) %this, ptr nocapture noundef nonnull readonly align 8 dereferenceable(32) %ns, i1 noundef zeroext %dasherize) local_unnamed_addr #0 align 2 {
entry:
  %parser_ = getelementptr inbounds i8, ptr %this, i64 8
  %0 = load ptr, ptr %parser_, align 8
  %path_ = getelementptr inbounds i8, ptr %this, i64 16
  %1 = load ptr, ptr %path_, align 8
  tail call void @_ZN11flatbuffers13BaseGenerator12NamespaceDirERKNS_6ParserERKNSt7__cxx1112basic_stringIcSt11char_traitsIcESaIcEEERKNS_9NamespaceEb(ptr sret(%"class.std::__cxx11::basic_string") align 8 %agg.result, ptr noundef nonnull align 8 dereferenceable(1784) %0, ptr noundef nonnull align 8 dereferenceable(32) %1, ptr noundef nonnull align 8 dereferenceable(32) %ns, i1 noundef zeroext %dasherize)
  ret void
}